In archive libArduinoSerialRadioFrequency.a:

SerialRadioFrequencyAPC220.o:     file format elf32-avr

Sections:
Idx Name          Size      VMA       LMA       File off  Algn
  0 .text         000003a0  00000000  00000000  00000034  2**0
                  CONTENTS, ALLOC, LOAD, RELOC, READONLY, CODE
  1 .data         00000023  00000000  00000000  000003d4  2**0
                  CONTENTS, ALLOC, LOAD, RELOC, DATA
  2 .bss          00000000  00000000  00000000  000003f7  2**0
                  ALLOC
Disassembly of section .text:

00000000 <_ZN26SerialRadioFrequencyAPC22012setFrequencyEPKc>:
   0:	dc 01       	movw	r26, r24
   2:	20 e0       	ldi	r18, 0x00	; 0
   4:	30 e0       	ldi	r19, 0x00	; 0
   6:	fb 01       	movw	r30, r22
   8:	e2 0f       	add	r30, r18
   a:	f3 1f       	adc	r31, r19
   c:	80 81       	ld	r24, Z
   e:	5e 96       	adiw	r26, 0x1e	; 30
  10:	8c 93       	st	X, r24
  12:	5e 97       	sbiw	r26, 0x1e	; 30
  14:	2f 5f       	subi	r18, 0xFF	; 255
  16:	3f 4f       	sbci	r19, 0xFF	; 255
  18:	11 96       	adiw	r26, 0x01	; 1
  1a:	26 30       	cpi	r18, 0x06	; 6
  1c:	31 05       	cpc	r19, r1
  1e:	01 f4       	brne	.+0      	; 0x20 <_ZN26SerialRadioFrequencyAPC22012setFrequencyEPKc+0x20>
  20:	08 95       	ret

00000022 <_ZN26SerialRadioFrequencyAPC22012getFrequencyEv>:
  22:	fc 01       	movw	r30, r24
  24:	14 a2       	std	Z+36, r1	; 0x24
  26:	7e 96       	adiw	r30, 0x1e	; 30
  28:	cf 01       	movw	r24, r30
  2a:	08 95       	ret

0000002c <_ZN26SerialRadioFrequencyAPC22010setAirRateEh>:
  2c:	fc 01       	movw	r30, r24
  2e:	65 a3       	std	Z+37, r22	; 0x25
  30:	08 95       	ret

00000032 <_ZN26SerialRadioFrequencyAPC22010getAirRateEv>:
  32:	fc 01       	movw	r30, r24
  34:	85 a1       	ldd	r24, Z+37	; 0x25
  36:	08 95       	ret

00000038 <_ZN26SerialRadioFrequencyAPC2208getPowerEv>:
  38:	fc 01       	movw	r30, r24
  3a:	86 a1       	ldd	r24, Z+38	; 0x26
  3c:	08 95       	ret

0000003e <_ZN26SerialRadioFrequencyAPC2208setPowerEh>:
  3e:	fc 01       	movw	r30, r24
  40:	66 a3       	std	Z+38, r22	; 0x26
  42:	08 95       	ret

00000044 <_ZN26SerialRadioFrequencyAPC22011setUartRateEh>:
  44:	fc 01       	movw	r30, r24
  46:	67 a3       	std	Z+39, r22	; 0x27
  48:	08 95       	ret

0000004a <_ZN26SerialRadioFrequencyAPC22011getUartRateEv>:
  4a:	fc 01       	movw	r30, r24
  4c:	87 a1       	ldd	r24, Z+39	; 0x27
  4e:	08 95       	ret

00000050 <_ZN26SerialRadioFrequencyAPC22017setSeriesCheckoutEh>:
  50:	fc 01       	movw	r30, r24
  52:	60 a7       	std	Z+40, r22	; 0x28
  54:	08 95       	ret

00000056 <_ZN26SerialRadioFrequencyAPC22017getSeriesCheckoutEv>:
  56:	fc 01       	movw	r30, r24
  58:	80 a5       	ldd	r24, Z+40	; 0x28
  5a:	08 95       	ret

0000005c <_ZN26SerialRadioFrequencyAPC22015writeParametersEv>:
  5c:	af 92       	push	r10
  5e:	bf 92       	push	r11
  60:	cf 92       	push	r12
  62:	df 92       	push	r13
  64:	ef 92       	push	r14
  66:	ff 92       	push	r15
  68:	0f 93       	push	r16
  6a:	1f 93       	push	r17
  6c:	df 93       	push	r29
  6e:	cf 93       	push	r28
  70:	cd b7       	in	r28, 0x3d	; 61
  72:	de b7       	in	r29, 0x3e	; 62
  74:	63 97       	sbiw	r28, 0x13	; 19
  76:	0f b6       	in	r0, 0x3f	; 63
  78:	f8 94       	cli
  7a:	de bf       	out	0x3e, r29	; 62
  7c:	0f be       	out	0x3f, r0	; 63
  7e:	cd bf       	out	0x3d, r28	; 61
  80:	8c 01       	movw	r16, r24
  82:	de 01       	movw	r26, r28
  84:	11 96       	adiw	r26, 0x01	; 1
  86:	e0 e0       	ldi	r30, 0x00	; 0
  88:	f0 e0       	ldi	r31, 0x00	; 0
  8a:	83 e1       	ldi	r24, 0x13	; 19
  8c:	01 90       	ld	r0, Z+
  8e:	0d 92       	st	X+, r0
  90:	81 50       	subi	r24, 0x01	; 1
  92:	01 f4       	brne	.+0      	; 0x94 <_ZN26SerialRadioFrequencyAPC22015writeParametersEv+0x38>
  94:	d8 01       	movw	r26, r16
  96:	5c 96       	adiw	r26, 0x1c	; 28
  98:	8c 91       	ld	r24, X
  9a:	61 e0       	ldi	r22, 0x01	; 1
  9c:	0e 94 00 00 	call	0	; 0x0 <_ZN26SerialRadioFrequencyAPC22012setFrequencyEPKc>
  a0:	f8 01       	movw	r30, r16
  a2:	85 8d       	ldd	r24, Z+29	; 0x1d
  a4:	61 e0       	ldi	r22, 0x01	; 1
  a6:	0e 94 00 00 	call	0	; 0x0 <_ZN26SerialRadioFrequencyAPC22012setFrequencyEPKc>
  aa:	62 e3       	ldi	r22, 0x32	; 50
  ac:	70 e0       	ldi	r23, 0x00	; 0
  ae:	80 e0       	ldi	r24, 0x00	; 0
  b0:	90 e0       	ldi	r25, 0x00	; 0
  b2:	0e 94 00 00 	call	0	; 0x0 <_ZN26SerialRadioFrequencyAPC22012setFrequencyEPKc>
  b6:	d8 01       	movw	r26, r16
  b8:	5d 96       	adiw	r26, 0x1d	; 29
  ba:	8c 91       	ld	r24, X
  bc:	60 e0       	ldi	r22, 0x00	; 0
  be:	0e 94 00 00 	call	0	; 0x0 <_ZN26SerialRadioFrequencyAPC22012setFrequencyEPKc>
  c2:	61 e0       	ldi	r22, 0x01	; 1
  c4:	70 e0       	ldi	r23, 0x00	; 0
  c6:	80 e0       	ldi	r24, 0x00	; 0
  c8:	90 e0       	ldi	r25, 0x00	; 0
  ca:	0e 94 00 00 	call	0	; 0x0 <_ZN26SerialRadioFrequencyAPC22012setFrequencyEPKc>
  ce:	d8 01       	movw	r26, r16
  d0:	fe 01       	movw	r30, r28
  d2:	34 96       	adiw	r30, 0x04	; 4
  d4:	9e 01       	movw	r18, r28
  d6:	26 5f       	subi	r18, 0xF6	; 246
  d8:	3f 4f       	sbci	r19, 0xFF	; 255
  da:	5e 96       	adiw	r26, 0x1e	; 30
  dc:	8c 91       	ld	r24, X
  de:	5e 97       	sbiw	r26, 0x1e	; 30
  e0:	81 93       	st	Z+, r24
  e2:	11 96       	adiw	r26, 0x01	; 1
  e4:	e2 17       	cp	r30, r18
  e6:	f3 07       	cpc	r31, r19
  e8:	01 f4       	brne	.+0      	; 0xea <_ZN26SerialRadioFrequencyAPC22015writeParametersEv+0x8e>
  ea:	f8 01       	movw	r30, r16
  ec:	85 a1       	ldd	r24, Z+37	; 0x25
  ee:	8b 87       	std	Y+11, r24	; 0x0b
  f0:	86 a1       	ldd	r24, Z+38	; 0x26
  f2:	8d 87       	std	Y+13, r24	; 0x0d
  f4:	87 a1       	ldd	r24, Z+39	; 0x27
  f6:	8f 87       	std	Y+15, r24	; 0x0f
  f8:	80 a5       	ldd	r24, Z+40	; 0x28
  fa:	89 8b       	std	Y+17, r24	; 0x11
  fc:	68 01       	movw	r12, r16
  fe:	7e 01       	movw	r14, r28
 100:	08 94       	sec
 102:	e1 1c       	adc	r14, r1
 104:	f1 1c       	adc	r15, r1
 106:	24 e1       	ldi	r18, 0x14	; 20
 108:	a2 2e       	mov	r10, r18
 10a:	b1 2c       	mov	r11, r1
 10c:	ac 0e       	add	r10, r28
 10e:	bd 1e       	adc	r11, r29
 110:	d8 01       	movw	r26, r16
 112:	ed 91       	ld	r30, X+
 114:	fc 91       	ld	r31, X
 116:	01 90       	ld	r0, Z+
 118:	f0 81       	ld	r31, Z
 11a:	e0 2d       	mov	r30, r0
 11c:	c6 01       	movw	r24, r12
 11e:	d7 01       	movw	r26, r14
 120:	6d 91       	ld	r22, X+
 122:	7d 01       	movw	r14, r26
 124:	09 95       	icall
 126:	ea 14       	cp	r14, r10
 128:	fb 04       	cpc	r15, r11
 12a:	01 f4       	brne	.+0      	; 0x12c <_ZN26SerialRadioFrequencyAPC22015writeParametersEv+0xd0>
 12c:	68 ec       	ldi	r22, 0xC8	; 200
 12e:	70 e0       	ldi	r23, 0x00	; 0
 130:	80 e0       	ldi	r24, 0x00	; 0
 132:	90 e0       	ldi	r25, 0x00	; 0
 134:	0e 94 00 00 	call	0	; 0x0 <_ZN26SerialRadioFrequencyAPC22012setFrequencyEPKc>
 138:	99 e2       	ldi	r25, 0x29	; 41
 13a:	e9 2e       	mov	r14, r25
 13c:	f1 2c       	mov	r15, r1
 13e:	e0 0e       	add	r14, r16
 140:	f1 1e       	adc	r15, r17
 142:	8e e3       	ldi	r24, 0x3E	; 62
 144:	a8 2e       	mov	r10, r24
 146:	b1 2c       	mov	r11, r1
 148:	a0 0e       	add	r10, r16
 14a:	b1 1e       	adc	r11, r17
 14c:	d8 01       	movw	r26, r16
 14e:	ed 91       	ld	r30, X+
 150:	fc 91       	ld	r31, X
 152:	04 80       	ldd	r0, Z+4	; 0x04
 154:	f5 81       	ldd	r31, Z+5	; 0x05
 156:	e0 2d       	mov	r30, r0
 158:	c6 01       	movw	r24, r12
 15a:	09 95       	icall
 15c:	89 2b       	or	r24, r25
 15e:	01 f0       	breq	.+0      	; 0x160 <_ZN26SerialRadioFrequencyAPC22015writeParametersEv+0x104>
 160:	d8 01       	movw	r26, r16
 162:	ed 91       	ld	r30, X+
 164:	fc 91       	ld	r31, X
 166:	06 80       	ldd	r0, Z+6	; 0x06
 168:	f7 81       	ldd	r31, Z+7	; 0x07
 16a:	e0 2d       	mov	r30, r0
 16c:	c6 01       	movw	r24, r12
 16e:	09 95       	icall
 170:	f7 01       	movw	r30, r14
 172:	81 93       	st	Z+, r24
 174:	7f 01       	movw	r14, r30
 176:	ea 15       	cp	r30, r10
 178:	fb 05       	cpc	r31, r11
 17a:	01 f4       	brne	.+0      	; 0x17c <_ZN26SerialRadioFrequencyAPC22015writeParametersEv+0x120>
 17c:	6a e0       	ldi	r22, 0x0A	; 10
 17e:	70 e0       	ldi	r23, 0x00	; 0
 180:	80 e0       	ldi	r24, 0x00	; 0
 182:	90 e0       	ldi	r25, 0x00	; 0
 184:	0e 94 00 00 	call	0	; 0x0 <_ZN26SerialRadioFrequencyAPC22012setFrequencyEPKc>
 188:	d8 01       	movw	r26, r16
 18a:	5d 96       	adiw	r26, 0x1d	; 29
 18c:	8c 91       	ld	r24, X
 18e:	61 e0       	ldi	r22, 0x01	; 1
 190:	0e 94 00 00 	call	0	; 0x0 <_ZN26SerialRadioFrequencyAPC22012setFrequencyEPKc>
 194:	63 96       	adiw	r28, 0x13	; 19
 196:	0f b6       	in	r0, 0x3f	; 63
 198:	f8 94       	cli
 19a:	de bf       	out	0x3e, r29	; 62
 19c:	0f be       	out	0x3f, r0	; 63
 19e:	cd bf       	out	0x3d, r28	; 61
 1a0:	cf 91       	pop	r28
 1a2:	df 91       	pop	r29
 1a4:	1f 91       	pop	r17
 1a6:	0f 91       	pop	r16
 1a8:	ff 90       	pop	r15
 1aa:	ef 90       	pop	r14
 1ac:	df 90       	pop	r13
 1ae:	cf 90       	pop	r12
 1b0:	bf 90       	pop	r11
 1b2:	af 90       	pop	r10
 1b4:	08 95       	ret

000001b6 <_ZN26SerialRadioFrequencyAPC22014readParametersEv>:
 1b6:	af 92       	push	r10
 1b8:	bf 92       	push	r11
 1ba:	cf 92       	push	r12
 1bc:	df 92       	push	r13
 1be:	ef 92       	push	r14
 1c0:	ff 92       	push	r15
 1c2:	0f 93       	push	r16
 1c4:	1f 93       	push	r17
 1c6:	df 93       	push	r29
 1c8:	cf 93       	push	r28
 1ca:	00 d0       	rcall	.+0      	; 0x1cc <_ZN26SerialRadioFrequencyAPC22014readParametersEv+0x16>
 1cc:	00 d0       	rcall	.+0      	; 0x1ce <_ZN26SerialRadioFrequencyAPC22014readParametersEv+0x18>
 1ce:	cd b7       	in	r28, 0x3d	; 61
 1d0:	de b7       	in	r29, 0x3e	; 62
 1d2:	8c 01       	movw	r16, r24
 1d4:	82 e5       	ldi	r24, 0x52	; 82
 1d6:	89 83       	std	Y+1, r24	; 0x01
 1d8:	84 e4       	ldi	r24, 0x44	; 68
 1da:	8a 83       	std	Y+2, r24	; 0x02
 1dc:	8d e0       	ldi	r24, 0x0D	; 13
 1de:	8b 83       	std	Y+3, r24	; 0x03
 1e0:	8a e0       	ldi	r24, 0x0A	; 10
 1e2:	8c 83       	std	Y+4, r24	; 0x04
 1e4:	d8 01       	movw	r26, r16
 1e6:	5c 96       	adiw	r26, 0x1c	; 28
 1e8:	8c 91       	ld	r24, X
 1ea:	61 e0       	ldi	r22, 0x01	; 1
 1ec:	0e 94 00 00 	call	0	; 0x0 <_ZN26SerialRadioFrequencyAPC22012setFrequencyEPKc>
 1f0:	f8 01       	movw	r30, r16
 1f2:	85 8d       	ldd	r24, Z+29	; 0x1d
 1f4:	61 e0       	ldi	r22, 0x01	; 1
 1f6:	0e 94 00 00 	call	0	; 0x0 <_ZN26SerialRadioFrequencyAPC22012setFrequencyEPKc>
 1fa:	62 e3       	ldi	r22, 0x32	; 50
 1fc:	70 e0       	ldi	r23, 0x00	; 0
 1fe:	80 e0       	ldi	r24, 0x00	; 0
 200:	90 e0       	ldi	r25, 0x00	; 0
 202:	0e 94 00 00 	call	0	; 0x0 <_ZN26SerialRadioFrequencyAPC22012setFrequencyEPKc>
 206:	d8 01       	movw	r26, r16
 208:	5d 96       	adiw	r26, 0x1d	; 29
 20a:	8c 91       	ld	r24, X
 20c:	60 e0       	ldi	r22, 0x00	; 0
 20e:	0e 94 00 00 	call	0	; 0x0 <_ZN26SerialRadioFrequencyAPC22012setFrequencyEPKc>
 212:	61 e0       	ldi	r22, 0x01	; 1
 214:	70 e0       	ldi	r23, 0x00	; 0
 216:	80 e0       	ldi	r24, 0x00	; 0
 218:	90 e0       	ldi	r25, 0x00	; 0
 21a:	0e 94 00 00 	call	0	; 0x0 <_ZN26SerialRadioFrequencyAPC22012setFrequencyEPKc>
 21e:	58 01       	movw	r10, r16
 220:	d8 01       	movw	r26, r16
 222:	ed 91       	ld	r30, X+
 224:	fc 91       	ld	r31, X
 226:	01 90       	ld	r0, Z+
 228:	f0 81       	ld	r31, Z
 22a:	e0 2d       	mov	r30, r0
 22c:	c8 01       	movw	r24, r16
 22e:	69 81       	ldd	r22, Y+1	; 0x01
 230:	09 95       	icall
 232:	d8 01       	movw	r26, r16
 234:	ed 91       	ld	r30, X+
 236:	fc 91       	ld	r31, X
 238:	01 90       	ld	r0, Z+
 23a:	f0 81       	ld	r31, Z
 23c:	e0 2d       	mov	r30, r0
 23e:	c8 01       	movw	r24, r16
 240:	6a 81       	ldd	r22, Y+2	; 0x02
 242:	09 95       	icall
 244:	d8 01       	movw	r26, r16
 246:	ed 91       	ld	r30, X+
 248:	fc 91       	ld	r31, X
 24a:	01 90       	ld	r0, Z+
 24c:	f0 81       	ld	r31, Z
 24e:	e0 2d       	mov	r30, r0
 250:	c8 01       	movw	r24, r16
 252:	6b 81       	ldd	r22, Y+3	; 0x03
 254:	09 95       	icall
 256:	d8 01       	movw	r26, r16
 258:	ed 91       	ld	r30, X+
 25a:	fc 91       	ld	r31, X
 25c:	01 90       	ld	r0, Z+
 25e:	f0 81       	ld	r31, Z
 260:	e0 2d       	mov	r30, r0
 262:	c8 01       	movw	r24, r16
 264:	6a e0       	ldi	r22, 0x0A	; 10
 266:	09 95       	icall
 268:	68 ec       	ldi	r22, 0xC8	; 200
 26a:	70 e0       	ldi	r23, 0x00	; 0
 26c:	80 e0       	ldi	r24, 0x00	; 0
 26e:	90 e0       	ldi	r25, 0x00	; 0
 270:	0e 94 00 00 	call	0	; 0x0 <_ZN26SerialRadioFrequencyAPC22012setFrequencyEPKc>
 274:	49 e2       	ldi	r20, 0x29	; 41
 276:	e4 2e       	mov	r14, r20
 278:	f1 2c       	mov	r15, r1
 27a:	e0 0e       	add	r14, r16
 27c:	f1 1e       	adc	r15, r17
 27e:	3e e3       	ldi	r19, 0x3E	; 62
 280:	c3 2e       	mov	r12, r19
 282:	d1 2c       	mov	r13, r1
 284:	c0 0e       	add	r12, r16
 286:	d1 1e       	adc	r13, r17
 288:	d8 01       	movw	r26, r16
 28a:	ed 91       	ld	r30, X+
 28c:	fc 91       	ld	r31, X
 28e:	04 80       	ldd	r0, Z+4	; 0x04
 290:	f5 81       	ldd	r31, Z+5	; 0x05
 292:	e0 2d       	mov	r30, r0
 294:	c5 01       	movw	r24, r10
 296:	09 95       	icall
 298:	89 2b       	or	r24, r25
 29a:	01 f0       	breq	.+0      	; 0x29c <_ZN26SerialRadioFrequencyAPC22014readParametersEv+0xe6>
 29c:	d8 01       	movw	r26, r16
 29e:	ed 91       	ld	r30, X+
 2a0:	fc 91       	ld	r31, X
 2a2:	06 80       	ldd	r0, Z+6	; 0x06
 2a4:	f7 81       	ldd	r31, Z+7	; 0x07
 2a6:	e0 2d       	mov	r30, r0
 2a8:	c5 01       	movw	r24, r10
 2aa:	09 95       	icall
 2ac:	f7 01       	movw	r30, r14
 2ae:	81 93       	st	Z+, r24
 2b0:	7f 01       	movw	r14, r30
 2b2:	ec 15       	cp	r30, r12
 2b4:	fd 05       	cpc	r31, r13
 2b6:	01 f4       	brne	.+0      	; 0x2b8 <_ZN26SerialRadioFrequencyAPC22014readParametersEv+0x102>
 2b8:	6a e0       	ldi	r22, 0x0A	; 10
 2ba:	70 e0       	ldi	r23, 0x00	; 0
 2bc:	80 e0       	ldi	r24, 0x00	; 0
 2be:	90 e0       	ldi	r25, 0x00	; 0
 2c0:	0e 94 00 00 	call	0	; 0x0 <_ZN26SerialRadioFrequencyAPC22012setFrequencyEPKc>
 2c4:	d8 01       	movw	r26, r16
 2c6:	5d 96       	adiw	r26, 0x1d	; 29
 2c8:	8c 91       	ld	r24, X
 2ca:	61 e0       	ldi	r22, 0x01	; 1
 2cc:	0e 94 00 00 	call	0	; 0x0 <_ZN26SerialRadioFrequencyAPC22012setFrequencyEPKc>
 2d0:	f8 01       	movw	r30, r16
 2d2:	7e 96       	adiw	r30, 0x1e	; 30
 2d4:	90 e0       	ldi	r25, 0x00	; 0
 2d6:	80 89       	ldd	r24, Z+16	; 0x10
 2d8:	81 93       	st	Z+, r24
 2da:	9f 5f       	subi	r25, 0xFF	; 255
 2dc:	96 30       	cpi	r25, 0x06	; 6
 2de:	01 f4       	brne	.+0      	; 0x2e0 <_ZN26SerialRadioFrequencyAPC22014readParametersEv+0x12a>
 2e0:	f8 01       	movw	r30, r16
 2e2:	85 a9       	ldd	r24, Z+53	; 0x35
 2e4:	85 a3       	std	Z+37, r24	; 0x25
 2e6:	87 a9       	ldd	r24, Z+55	; 0x37
 2e8:	86 a3       	std	Z+38, r24	; 0x26
 2ea:	81 ad       	ldd	r24, Z+57	; 0x39
 2ec:	87 a3       	std	Z+39, r24	; 0x27
 2ee:	83 ad       	ldd	r24, Z+59	; 0x3b
 2f0:	80 a7       	std	Z+40, r24	; 0x28
 2f2:	0f 90       	pop	r0
 2f4:	0f 90       	pop	r0
 2f6:	0f 90       	pop	r0
 2f8:	0f 90       	pop	r0
 2fa:	cf 91       	pop	r28
 2fc:	df 91       	pop	r29
 2fe:	1f 91       	pop	r17
 300:	0f 91       	pop	r16
 302:	ff 90       	pop	r15
 304:	ef 90       	pop	r14
 306:	df 90       	pop	r13
 308:	cf 90       	pop	r12
 30a:	bf 90       	pop	r11
 30c:	af 90       	pop	r10
 30e:	08 95       	ret

00000310 <_ZN26SerialRadioFrequencyAPC220C1Ehhhh>:
 310:	ef 92       	push	r14
 312:	ff 92       	push	r15
 314:	0f 93       	push	r16
 316:	1f 93       	push	r17
 318:	7c 01       	movw	r14, r24
 31a:	12 2f       	mov	r17, r18
 31c:	0e 94 00 00 	call	0	; 0x0 <_ZN26SerialRadioFrequencyAPC22012setFrequencyEPKc>
 320:	80 e0       	ldi	r24, 0x00	; 0
 322:	90 e0       	ldi	r25, 0x00	; 0
 324:	f7 01       	movw	r30, r14
 326:	91 83       	std	Z+1, r25	; 0x01
 328:	80 83       	st	Z, r24
 32a:	14 8f       	std	Z+28, r17	; 0x1c
 32c:	05 8f       	std	Z+29, r16	; 0x1d
 32e:	81 2f       	mov	r24, r17
 330:	61 e0       	ldi	r22, 0x01	; 1
 332:	0e 94 00 00 	call	0	; 0x0 <_ZN26SerialRadioFrequencyAPC22012setFrequencyEPKc>
 336:	80 2f       	mov	r24, r16
 338:	61 e0       	ldi	r22, 0x01	; 1
 33a:	0e 94 00 00 	call	0	; 0x0 <_ZN26SerialRadioFrequencyAPC22012setFrequencyEPKc>
 33e:	81 2f       	mov	r24, r17
 340:	61 e0       	ldi	r22, 0x01	; 1
 342:	0e 94 00 00 	call	0	; 0x0 <_ZN26SerialRadioFrequencyAPC22012setFrequencyEPKc>
 346:	80 2f       	mov	r24, r16
 348:	61 e0       	ldi	r22, 0x01	; 1
 34a:	0e 94 00 00 	call	0	; 0x0 <_ZN26SerialRadioFrequencyAPC22012setFrequencyEPKc>
 34e:	1f 91       	pop	r17
 350:	0f 91       	pop	r16
 352:	ff 90       	pop	r15
 354:	ef 90       	pop	r14
 356:	08 95       	ret

00000358 <_ZN26SerialRadioFrequencyAPC220C2Ehhhh>:
 358:	ef 92       	push	r14
 35a:	ff 92       	push	r15
 35c:	0f 93       	push	r16
 35e:	1f 93       	push	r17
 360:	7c 01       	movw	r14, r24
 362:	12 2f       	mov	r17, r18
 364:	0e 94 00 00 	call	0	; 0x0 <_ZN26SerialRadioFrequencyAPC22012setFrequencyEPKc>
 368:	80 e0       	ldi	r24, 0x00	; 0
 36a:	90 e0       	ldi	r25, 0x00	; 0
 36c:	f7 01       	movw	r30, r14
 36e:	91 83       	std	Z+1, r25	; 0x01
 370:	80 83       	st	Z, r24
 372:	14 8f       	std	Z+28, r17	; 0x1c
 374:	05 8f       	std	Z+29, r16	; 0x1d
 376:	81 2f       	mov	r24, r17
 378:	61 e0       	ldi	r22, 0x01	; 1
 37a:	0e 94 00 00 	call	0	; 0x0 <_ZN26SerialRadioFrequencyAPC22012setFrequencyEPKc>
 37e:	80 2f       	mov	r24, r16
 380:	61 e0       	ldi	r22, 0x01	; 1
 382:	0e 94 00 00 	call	0	; 0x0 <_ZN26SerialRadioFrequencyAPC22012setFrequencyEPKc>
 386:	81 2f       	mov	r24, r17
 388:	61 e0       	ldi	r22, 0x01	; 1
 38a:	0e 94 00 00 	call	0	; 0x0 <_ZN26SerialRadioFrequencyAPC22012setFrequencyEPKc>
 38e:	80 2f       	mov	r24, r16
 390:	61 e0       	ldi	r22, 0x01	; 1
 392:	0e 94 00 00 	call	0	; 0x0 <_ZN26SerialRadioFrequencyAPC22012setFrequencyEPKc>
 396:	1f 91       	pop	r17
 398:	0f 91       	pop	r16
 39a:	ff 90       	pop	r15
 39c:	ef 90       	pop	r14
 39e:	08 95       	ret

SerialRadioFrequency.o:     file format elf32-avr

Sections:
Idx Name          Size      VMA       LMA       File off  Algn
  0 .text         00000038  00000000  00000000  00000034  2**0
                  CONTENTS, ALLOC, LOAD, RELOC, READONLY, CODE
  1 .data         00000010  00000000  00000000  0000006c  2**0
                  CONTENTS, ALLOC, LOAD, RELOC, DATA
  2 .bss          00000000  00000000  00000000  0000007c  2**0
                  ALLOC
Disassembly of section .text:

00000000 <_ZN20SerialRadioFrequencyC1Ehh>:
   0:	0f 93       	push	r16
   2:	1f 93       	push	r17
   4:	8c 01       	movw	r16, r24
   6:	20 e0       	ldi	r18, 0x00	; 0
   8:	0e 94 00 00 	call	0	; 0x0 <_ZN20SerialRadioFrequencyC1Ehh>
   c:	80 e0       	ldi	r24, 0x00	; 0
   e:	90 e0       	ldi	r25, 0x00	; 0
  10:	f8 01       	movw	r30, r16
  12:	91 83       	std	Z+1, r25	; 0x01
  14:	80 83       	st	Z, r24
  16:	1f 91       	pop	r17
  18:	0f 91       	pop	r16
  1a:	08 95       	ret

0000001c <_ZN20SerialRadioFrequencyC2Ehh>:
  1c:	0f 93       	push	r16
  1e:	1f 93       	push	r17
  20:	8c 01       	movw	r16, r24
  22:	20 e0       	ldi	r18, 0x00	; 0
  24:	0e 94 00 00 	call	0	; 0x0 <_ZN20SerialRadioFrequencyC1Ehh>
  28:	80 e0       	ldi	r24, 0x00	; 0
  2a:	90 e0       	ldi	r25, 0x00	; 0
  2c:	f8 01       	movw	r30, r16
  2e:	91 83       	std	Z+1, r25	; 0x01
  30:	80 83       	st	Z, r24
  32:	1f 91       	pop	r17
  34:	0f 91       	pop	r16
  36:	08 95       	ret
